; Function Attrs: mustprogress nofree norecurse nosync nounwind willreturn memory(readwrite, inaccessiblemem: none) uwtable
define void @_ZN6icu_7713DecimalFormat16setParseAllInputE27UNumberFormatAttributeValue(ptr noundef nonnull readonly align 8 captures(none) dereferenceable(72) %0, i32 noundef %1) local_unnamed_addr #12 align 2 {
  %3 = getelementptr inbounds nuw i8, ptr %0, i64 64
  %4 = load ptr, ptr %3, align 8, !tbaa !25
  %5 = icmp eq ptr %4, null
  br i1 %5, label %11, label %6

6:                                                ; preds = %2
  %7 = getelementptr inbounds nuw i8, ptr %4, i64 480
  %8 = load i32, ptr %7, align 8, !tbaa !113
  %9 = icmp eq i32 %1, %8
  br i1 %9, label %11, label %10

10:                                               ; preds = %6
  store i32 %1, ptr %7, align 8, !tbaa !113
  br label %11

11:                                               ; preds = %6, %2, %10
  ret void
}